target datalayout = "e-m:e-p270:32:32-p271:32:32-p272:64:64-i64:64-i128:128-f80:128-n8:16:32:64-S128"
target triple = "x86_64-pc-linux-gnu"

%"class.std::optional" = type { %"struct.std::_Optional_base" }
%"struct.std::_Optional_base" = type { %"struct.std::_Optional_payload" }
%"struct.std::_Optional_payload" = type { %"struct.std::_Optional_payload.base", [7 x i8] }
%"struct.std::_Optional_payload.base" = type { %"struct.std::_Optional_payload_base.base" }
%"struct.std::_Optional_payload_base.base" = type <{ %"union.std::_Optional_payload_base<cvc5::internal::DeltaRational>::_Storage", i8 }>
%"union.std::_Optional_payload_base<cvc5::internal::DeltaRational>::_Storage" = type { %"class.cvc5::internal::DeltaRational" }
%"class.cvc5::internal::DeltaRational" = type { %"class.cvc5::internal::Rational", %"class.cvc5::internal::Rational" }
%"class.cvc5::internal::Rational" = type { %class.__gmp_expr }
%class.__gmp_expr = type { [1 x %struct.__mpq_struct] }
%struct.__mpq_struct = type { %struct.__mpz_struct, %struct.__mpz_struct }
%struct.__mpz_struct = type { i32, i32, ptr }
%"class.cvc5::internal::theory::arith::linear::LinearEqualityModule" = type { ptr, ptr, %"class.cvc5::internal::theory::arith::linear::BasicVarModelUpdateCallBack", %"class.cvc5::internal::theory::arith::linear::BorderHeap", %"class.cvc5::internal::theory::arith::linear::BorderHeap", %"class.std::optional", %"class.std::optional", %"class.cvc5::internal::Rational", %"class.cvc5::internal::Rational", ptr, i8, %"class.cvc5::internal::theory::arith::linear::LinearEqualityModule::TrackingCallback", %"class.cvc5::internal::theory::arith::linear::LinearEqualityModule::Statistics" }
%"class.cvc5::internal::theory::arith::linear::BasicVarModelUpdateCallBack" = type { %"class.cvc5::internal::theory::arith::linear::ArithVarCallBack", ptr }
%"class.cvc5::internal::theory::arith::linear::ArithVarCallBack" = type { ptr }
%"class.cvc5::internal::theory::arith::linear::BorderHeap" = type { i32, %"class.cvc5::internal::theory::arith::linear::BorderHeap::BorderHeapCmp", %"class.std::vector", %"class.__gnu_cxx::__normal_iterator", %"class.__gnu_cxx::__normal_iterator", i32, i32 }
%"class.cvc5::internal::theory::arith::linear::BorderHeap::BorderHeapCmp" = type { i32 }
%"class.std::vector" = type { %"struct.std::_Vector_base" }
%"struct.std::_Vector_base" = type { %"struct.std::_Vector_base<cvc5::internal::theory::arith::linear::Border, std::allocator<cvc5::internal::theory::arith::linear::Border>>::_Vector_impl" }
%"struct.std::_Vector_base<cvc5::internal::theory::arith::linear::Border, std::allocator<cvc5::internal::theory::arith::linear::Border>>::_Vector_impl" = type { %"struct.std::_Vector_base<cvc5::internal::theory::arith::linear::Border, std::allocator<cvc5::internal::theory::arith::linear::Border>>::_Vector_impl_data" }
%"struct.std::_Vector_base<cvc5::internal::theory::arith::linear::Border, std::allocator<cvc5::internal::theory::arith::linear::Border>>::_Vector_impl_data" = type { ptr, ptr, ptr }
%"class.__gnu_cxx::__normal_iterator" = type { ptr }
%"class.cvc5::internal::theory::arith::linear::LinearEqualityModule::TrackingCallback" = type { %"class.cvc5::internal::theory::arith::linear::CoefficientChangeCallback", ptr }
%"class.cvc5::internal::theory::arith::linear::CoefficientChangeCallback" = type { ptr }
%"class.cvc5::internal::theory::arith::linear::LinearEqualityModule::Statistics" = type { %"class.cvc5::internal::IntStat", %"class.cvc5::internal::IntStat", %"class.cvc5::internal::TimerStat", %"class.cvc5::internal::TimerStat", %"class.cvc5::internal::IntStat", %"class.cvc5::internal::IntStat", %"class.cvc5::internal::IntStat", %"class.cvc5::internal::TimerStat", %"class.cvc5::internal::TimerStat" }
%"class.cvc5::internal::IntStat" = type { %"class.cvc5::internal::ValueStat" }
%"class.cvc5::internal::ValueStat" = type { ptr }
%"class.cvc5::internal::TimerStat" = type { ptr }
%"class.cvc5::internal::theory::arith::linear::BoundsInfo" = type { %"class.cvc5::internal::theory::arith::linear::BoundCounts", %"class.cvc5::internal::theory::arith::linear::BoundCounts" }
%"class.cvc5::internal::theory::arith::linear::BoundCounts" = type { i32, i32 }
%"class.std::vector.19" = type { %"struct.std::_Vector_base.20" }
%"struct.std::_Vector_base.20" = type { %"struct.std::_Vector_base<unsigned int, std::allocator<unsigned int>>::_Vector_impl" }
%"struct.std::_Vector_base<unsigned int, std::allocator<unsigned int>>::_Vector_impl" = type { %"struct.std::_Vector_base<unsigned int, std::allocator<unsigned int>>::_Vector_impl_data" }
%"struct.std::_Vector_base<unsigned int, std::allocator<unsigned int>>::_Vector_impl_data" = type { ptr, ptr, ptr }
%"class.cvc5::internal::DenseMap.40" = type { %"class.std::vector.19", %"class.std::vector.19", %"class.std::vector.41" }
%"class.std::vector.41" = type { %"struct.std::_Vector_base.42" }
%"struct.std::_Vector_base.42" = type { %"struct.std::_Vector_base<cvc5::internal::theory::arith::linear::BoundsInfo, std::allocator<cvc5::internal::theory::arith::linear::BoundsInfo>>::_Vector_impl" }
%"struct.std::_Vector_base<cvc5::internal::theory::arith::linear::BoundsInfo, std::allocator<cvc5::internal::theory::arith::linear::BoundsInfo>>::_Vector_impl" = type { %"struct.std::_Vector_base<cvc5::internal::theory::arith::linear::BoundsInfo, std::allocator<cvc5::internal::theory::arith::linear::BoundsInfo>>::_Vector_impl_data" }
%"struct.std::_Vector_base<cvc5::internal::theory::arith::linear::BoundsInfo, std::allocator<cvc5::internal::theory::arith::linear::BoundsInfo>>::_Vector_impl_data" = type { ptr, ptr, ptr }

; Function Attrs: mustprogress nounwind uwtable
define linkonce_odr hidden void @_ZN4cvc58internal6theory5arith6linear11BoundCountsC2Ejj(ptr noundef nonnull align 4 dereferenceable(8) %0, i32 noundef %1, i32 noundef %2) unnamed_addr #6 comdat align 2 {
  %4 = alloca ptr, align 8
  %5 = alloca i32, align 4
  %6 = alloca i32, align 4
  store ptr %0, ptr %4, align 8, !tbaa !193
  store i32 %1, ptr %5, align 4, !tbaa !59
  store i32 %2, ptr %6, align 4, !tbaa !59
  %7 = load ptr, ptr %4, align 8
  %8 = getelementptr inbounds nuw %"class.cvc5::internal::theory::arith::linear::BoundCounts", ptr %7, i32 0, i32 0
  %9 = load i32, ptr %5, align 4, !tbaa !59
  store i32 %9, ptr %8, align 4, !tbaa !195
  %10 = getelementptr inbounds nuw %"class.cvc5::internal::theory::arith::linear::BoundCounts", ptr %7, i32 0, i32 1
  %11 = load i32, ptr %6, align 4, !tbaa !59
  store i32 %11, ptr %10, align 4, !tbaa !197
  ret void
}

; Function Attrs: mustprogress nounwind uwtable
define linkonce_odr hidden void @_ZN4cvc58internal6theory5arith6linear10BoundsInfoC2ENS3_11BoundCountsES5_(ptr noundef nonnull align 4 dereferenceable(16) %0, i64 %1, i64 %2) unnamed_addr #6 comdat align 2 {
  %4 = alloca %"class.cvc5::internal::theory::arith::linear::BoundCounts", align 4
  %5 = alloca %"class.cvc5::internal::theory::arith::linear::BoundCounts", align 4
  %6 = alloca ptr, align 8
  store i64 %1, ptr %4, align 4
  store i64 %2, ptr %5, align 4
  store ptr %0, ptr %6, align 8, !tbaa !120
  %7 = load ptr, ptr %6, align 8
  %8 = getelementptr inbounds nuw %"class.cvc5::internal::theory::arith::linear::BoundsInfo", ptr %7, i32 0, i32 0
  call void @llvm.memcpy.p0.p0.i64(ptr align 4 %8, ptr align 4 %4, i64 8, i1 false), !tbaa.struct !164
  %9 = getelementptr inbounds nuw %"class.cvc5::internal::theory::arith::linear::BoundsInfo", ptr %7, i32 0, i32 1
  call void @llvm.memcpy.p0.p0.i64(ptr align 4 %9, ptr align 4 %5, i64 8, i1 false), !tbaa.struct !164
  ret void
}

; Function Attrs: inlinehint mustprogress uwtable
define linkonce_odr hidden i64 @_ZNK4cvc58internal6theory5arith6linear11BoundCounts13multiplyBySgnEi(ptr noundef nonnull align 4 dereferenceable(8) %0, i32 noundef %1) #7 comdat align 2 {
  %3 = alloca %"class.cvc5::internal::theory::arith::linear::BoundCounts", align 4
  %4 = alloca ptr, align 8
  %5 = alloca i32, align 4
  store ptr %0, ptr %4, align 8, !tbaa !193
  store i32 %1, ptr %5, align 4, !tbaa !59
  %6 = load ptr, ptr %4, align 8
  %7 = load i32, ptr %5, align 4, !tbaa !59
  %8 = icmp sgt i32 %7, 0
  br i1 %8, label %9, label %10

9:                                                ; preds = %2
  call void @llvm.memcpy.p0.p0.i64(ptr align 4 %3, ptr align 4 %6, i64 8, i1 false), !tbaa.struct !164
  br label %19

10:                                               ; preds = %2
  %11 = load i32, ptr %5, align 4, !tbaa !59
  %12 = icmp eq i32 %11, 0
  br i1 %12, label %13, label %14

13:                                               ; preds = %10
  call void @_ZN4cvc58internal6theory5arith6linear11BoundCountsC2Ejj(ptr noundef nonnull align 4 dereferenceable(8) %3, i32 noundef 0, i32 noundef 0)
  br label %19

14:                                               ; preds = %10
  %15 = getelementptr inbounds nuw %"class.cvc5::internal::theory::arith::linear::BoundCounts", ptr %6, i32 0, i32 1
  %16 = load i32, ptr %15, align 4, !tbaa !197
  %17 = getelementptr inbounds nuw %"class.cvc5::internal::theory::arith::linear::BoundCounts", ptr %6, i32 0, i32 0
  %18 = load i32, ptr %17, align 4, !tbaa !195
  call void @_ZN4cvc58internal6theory5arith6linear11BoundCountsC2Ejj(ptr noundef nonnull align 4 dereferenceable(8) %3, i32 noundef %16, i32 noundef %18)
  br label %19

19:                                               ; preds = %14, %13, %9
  %20 = load i64, ptr %3, align 4
  ret i64 %20
}

; Function Attrs: mustprogress nounwind uwtable
define linkonce_odr hidden noundef nonnull align 4 dereferenceable(16) ptr @_ZNSt6vectorIN4cvc58internal6theory5arith6linear10BoundsInfoESaIS5_EEixEm(ptr noundef nonnull align 8 dereferenceable(24) %0, i64 noundef %1) #6 comdat align 2 {
  %3 = alloca ptr, align 8
  %4 = alloca i64, align 8
  store ptr %0, ptr %3, align 8, !tbaa !663
  store i64 %1, ptr %4, align 8, !tbaa !159
  %5 = load ptr, ptr %3, align 8
  %6 = getelementptr inbounds nuw %"struct.std::_Vector_base.42", ptr %5, i32 0, i32 0
  %7 = getelementptr inbounds nuw %"struct.std::_Vector_base<cvc5::internal::theory::arith::linear::BoundsInfo, std::allocator<cvc5::internal::theory::arith::linear::BoundsInfo>>::_Vector_impl_data", ptr %6, i32 0, i32 0
  %8 = load ptr, ptr %7, align 8, !tbaa !665
  %9 = load i64, ptr %4, align 8, !tbaa !159
  %10 = getelementptr inbounds nuw %"class.cvc5::internal::theory::arith::linear::BoundsInfo", ptr %8, i64 %9
  ret ptr %10
}

; Function Attrs: inlinehint mustprogress uwtable
define linkonce_odr hidden { i64, i64 } @_ZNK4cvc58internal6theory5arith6linear10BoundsInfo13multiplyBySgnEi(ptr noundef nonnull align 4 dereferenceable(16) %0, i32 noundef %1) #7 comdat align 2 {
  %3 = alloca %"class.cvc5::internal::theory::arith::linear::BoundsInfo", align 4
  %4 = alloca ptr, align 8
  %5 = alloca i32, align 4
  %6 = alloca %"class.cvc5::internal::theory::arith::linear::BoundCounts", align 4
  %7 = alloca %"class.cvc5::internal::theory::arith::linear::BoundCounts", align 4
  store ptr %0, ptr %4, align 8, !tbaa !120
  store i32 %1, ptr %5, align 4, !tbaa !59
  %8 = load ptr, ptr %4, align 8
  %9 = getelementptr inbounds nuw %"class.cvc5::internal::theory::arith::linear::BoundsInfo", ptr %8, i32 0, i32 0
  %10 = load i32, ptr %5, align 4, !tbaa !59
  %11 = call i64 @_ZNK4cvc58internal6theory5arith6linear11BoundCounts13multiplyBySgnEi(ptr noundef nonnull align 4 dereferenceable(8) %9, i32 noundef %10)
  store i64 %11, ptr %6, align 4
  %12 = getelementptr inbounds nuw %"class.cvc5::internal::theory::arith::linear::BoundsInfo", ptr %8, i32 0, i32 1
  %13 = load i32, ptr %5, align 4, !tbaa !59
  %14 = call i64 @_ZNK4cvc58internal6theory5arith6linear11BoundCounts13multiplyBySgnEi(ptr noundef nonnull align 4 dereferenceable(8) %12, i32 noundef %13)
  store i64 %14, ptr %7, align 4
  %15 = load i64, ptr %6, align 4
  %16 = load i64, ptr %7, align 4
  call void @_ZN4cvc58internal6theory5arith6linear10BoundsInfoC2ENS3_11BoundCountsES5_(ptr noundef nonnull align 4 dereferenceable(16) %3, i64 %15, i64 %16)
  %17 = load { i64, i64 }, ptr %3, align 4
  ret { i64, i64 } %17
}

; Function Attrs: mustprogress nounwind uwtable
define linkonce_odr hidden noundef nonnull align 4 dereferenceable(16) ptr @_ZN4cvc58internal8DenseMapINS0_6theory5arith6linear10BoundsInfoEE3getEj(ptr noundef nonnull align 8 dereferenceable(72) %0, i32 noundef %1) #6 comdat align 2 {
  %3 = alloca ptr, align 8
  %4 = alloca i32, align 4
  store ptr %0, ptr %3, align 8, !tbaa !90
  store i32 %1, ptr %4, align 4, !tbaa !59
  %5 = load ptr, ptr %3, align 8
  %6 = getelementptr inbounds nuw %"class.cvc5::internal::DenseMap.40", ptr %5, i32 0, i32 2
  %7 = load i32, ptr %4, align 4, !tbaa !59
  %8 = zext i32 %7 to i64
  %9 = call noundef nonnull align 4 dereferenceable(16) ptr @_ZNSt6vectorIN4cvc58internal6theory5arith6linear10BoundsInfoESaIS5_EEixEm(ptr noundef nonnull align 8 dereferenceable(24) %6, i64 noundef %8) #3
  ret ptr %9
}

; Function Attrs: mustprogress uwtable
define hidden void @_ZN4cvc58internal6theory5arith6linear20LinearEqualityModule19trackingMultiplyRowEji(ptr noundef nonnull align 8 dereferenceable(456) %0, i32 noundef %1, i32 noundef %2) #4 align 2 {
  %4 = alloca ptr, align 8
  %5 = alloca i32, align 4
  %6 = alloca i32, align 4
  %7 = alloca ptr, align 8
  %8 = alloca %"class.cvc5::internal::theory::arith::linear::BoundsInfo", align 4
  store ptr %0, ptr %4, align 8, !tbaa !3
  store i32 %1, ptr %5, align 4, !tbaa !59
  store i32 %2, ptr %6, align 4, !tbaa !59
  %9 = load ptr, ptr %4, align 8
  %10 = load i32, ptr %6, align 4, !tbaa !59
  %11 = icmp slt i32 %10, 0
  br i1 %11, label %12, label %25

12:                                               ; preds = %3
  call void @llvm.lifetime.start.p0(i64 8, ptr %7) #3
  %13 = getelementptr inbounds nuw %"class.cvc5::internal::theory::arith::linear::LinearEqualityModule", ptr %9, i32 0, i32 9
  %14 = load ptr, ptr %13, align 8, !tbaa !123
  %15 = load i32, ptr %5, align 4, !tbaa !59
  %16 = call noundef nonnull align 4 dereferenceable(16) ptr @_ZN4cvc58internal8DenseMapINS0_6theory5arith6linear10BoundsInfoEE3getEj(ptr noundef nonnull align 8 dereferenceable(72) %14, i32 noundef %15)
  store ptr %16, ptr %7, align 8, !tbaa !120
  call void @llvm.lifetime.start.p0(i64 16, ptr %8) #3
  %17 = load ptr, ptr %7, align 8, !tbaa !120
  %18 = load i32, ptr %6, align 4, !tbaa !59
  %19 = call { i64, i64 } @_ZNK4cvc58internal6theory5arith6linear10BoundsInfo13multiplyBySgnEi(ptr noundef nonnull align 4 dereferenceable(16) %17, i32 noundef %18)
  %20 = getelementptr inbounds nuw { i64, i64 }, ptr %8, i32 0, i32 0
  %21 = extractvalue { i64, i64 } %19, 0
  store i64 %21, ptr %20, align 4
  %22 = getelementptr inbounds nuw { i64, i64 }, ptr %8, i32 0, i32 1
  %23 = extractvalue { i64, i64 } %19, 1
  store i64 %23, ptr %22, align 4
  %24 = load ptr, ptr %7, align 8, !tbaa !120
  call void @llvm.memcpy.p0.p0.i64(ptr align 4 %24, ptr align 4 %8, i64 16, i1 false), !tbaa.struct !256
  call void @llvm.lifetime.end.p0(i64 16, ptr %8) #3
  call void @llvm.lifetime.end.p0(i64 8, ptr %7) #3
  br label %25

25:                                               ; preds = %12, %3
  ret void
}