; Function Attrs: mustprogress nofree norecurse nosync nounwind willreturn memory(readwrite, inaccessiblemem: none) uwtable
define hidden void @_ZN4cvc58internal6theory5arith6linear20LinearEqualityModule19trackingMultiplyRowEji(ptr noundef nonnull readonly align 8 captures(none) dereferenceable(456) %0, i32 noundef %1, i32 noundef %2) local_unnamed_addr #16 align 2 {
  %4 = icmp slt i32 %2, 0
  br i1 %4, label %_ZNK4cvc58internal6theory5arith6linear10BoundsInfo13multiplyBySgnEi.exit, label %18

_ZNK4cvc58internal6theory5arith6linear10BoundsInfo13multiplyBySgnEi.exit: ; preds = %3
  %5 = getelementptr inbounds nuw i8, ptr %0, i64 352
  %6 = load ptr, ptr %5, align 8, !tbaa !115
  %7 = getelementptr inbounds nuw i8, ptr %6, i64 48
  %8 = zext i32 %1 to i64
  %9 = load ptr, ptr %7, align 8, !tbaa !116
  %10 = getelementptr inbounds nuw %"class.cvc5::internal::theory::arith::linear::BoundsInfo", ptr %9, i64 %8
  %11 = getelementptr inbounds nuw i8, ptr %10, i64 4
  %12 = load i32, ptr %11, align 4, !tbaa !121
  %13 = load i32, ptr %10, align 4, !tbaa !123
  %.sroa.4.0.insert.ext.i15.i = zext i32 %13 to i64
  %.sroa.4.0.insert.shift.i16.i = shl nuw i64 %.sroa.4.0.insert.ext.i15.i, 32
  %.sroa.0.0.insert.ext.i17.i = zext i32 %12 to i64
  %.sroa.0.0.insert.insert.i18.i = or disjoint i64 %.sroa.4.0.insert.shift.i16.i, %.sroa.0.0.insert.ext.i17.i
  %14 = getelementptr inbounds nuw i8, ptr %10, i64 8
  %15 = getelementptr inbounds nuw i8, ptr %10, i64 12
  %16 = load i32, ptr %15, align 4, !tbaa !121
  %17 = load i32, ptr %14, align 4, !tbaa !123
  %.sroa.4.0.insert.ext.i5.i = zext i32 %17 to i64
  %.sroa.4.0.insert.shift.i6.i = shl nuw i64 %.sroa.4.0.insert.ext.i5.i, 32
  %.sroa.0.0.insert.ext.i7.i = zext i32 %16 to i64
  %.sroa.0.0.insert.insert.i8.i = or disjoint i64 %.sroa.4.0.insert.shift.i6.i, %.sroa.0.0.insert.ext.i7.i
  store i64 %.sroa.0.0.insert.insert.i18.i, ptr %10, align 4
  store i64 %.sroa.0.0.insert.insert.i8.i, ptr %14, align 4
  br label %18

18:                                               ; preds = %_ZNK4cvc58internal6theory5arith6linear10BoundsInfo13multiplyBySgnEi.exit, %3
  ret void
}